target datalayout = "e-m:e-p270:32:32-p271:32:32-p272:64:64-i64:64-i128:128-f80:128-n8:16:32:64-S128"
target triple = "x86_64-pc-linux-gnu"

%"class.clang::ento::SubRegion" = type { %"class.clang::ento::MemRegion", ptr }
%"class.clang::ento::MemRegion" = type { ptr, %"class.llvm::FoldingSetBase::Node", i32, [4 x i8], %"class.std::optional" }
%"class.llvm::FoldingSetBase::Node" = type { ptr }
%"class.std::optional" = type { %"struct.std::_Optional_base" }
%"struct.std::_Optional_base" = type { %"struct.std::_Optional_payload" }
%"struct.std::_Optional_payload" = type { %"struct.std::_Optional_payload_base.base", [7 x i8] }
%"struct.std::_Optional_payload_base.base" = type <{ %"union.std::_Optional_payload_base<clang::ento::RegionOffset>::_Storage", i8 }>
%"union.std::_Optional_payload_base<clang::ento::RegionOffset>::_Storage" = type { %"class.clang::ento::RegionOffset" }
%"class.clang::ento::RegionOffset" = type { ptr, i64 }
%"class.clang::ento::AllocaRegion" = type { %"class.clang::ento::SubRegion", i32, ptr }

; Function Attrs: mustprogress nounwind uwtable
define dso_local void @_ZNK5clang4ento12AllocaRegion7ProfileERN4llvm16FoldingSetNodeIDE(ptr noundef nonnull align 8 dereferenceable(72) %0, ptr noundef nonnull align 8 dereferenceable(144) %1) unnamed_addr #0 align 2 {
  %3 = alloca ptr, align 8
  %4 = alloca ptr, align 8
  store ptr %0, ptr %3, align 8
  store ptr %1, ptr %4, align 8
  %5 = load ptr, ptr %3, align 8
  %6 = load ptr, ptr %4, align 8
  %7 = getelementptr inbounds nuw %"class.clang::ento::AllocaRegion", ptr %5, i32 0, i32 2
  %8 = load ptr, ptr %7, align 8
  %9 = getelementptr inbounds nuw %"class.clang::ento::AllocaRegion", ptr %5, i32 0, i32 1
  %10 = load i32, ptr %9, align 8
  %11 = getelementptr inbounds nuw %"class.clang::ento::SubRegion", ptr %5, i32 0, i32 1
  %12 = load ptr, ptr %11, align 8
  call void @_ZN5clang4ento12AllocaRegion13ProfileRegionERN4llvm16FoldingSetNodeIDEPKNS_4ExprEjPKNS0_9MemRegionE(ptr noundef nonnull align 8 dereferenceable(144) %6, ptr noundef %8, i32 noundef %10, ptr noundef %12)
  ret void
}