; Function Attrs: mustprogress nounwind uwtable
define dso_local void @_ZNK5clang4ento12AllocaRegion7ProfileERN4llvm16FoldingSetNodeIDE(ptr nocapture noundef nonnull readonly align 8 dereferenceable(72) %0, ptr noundef nonnull align 8 dereferenceable(144) %1) unnamed_addr #3 align 2 {
  %3 = getelementptr inbounds nuw i8, ptr %0, i64 64
  %4 = load ptr, ptr %3, align 8
  %5 = getelementptr inbounds nuw i8, ptr %0, i64 56
  %6 = load i32, ptr %5, align 8
  %7 = getelementptr inbounds nuw i8, ptr %0, i64 48
  %8 = load ptr, ptr %7, align 8
  tail call void @_ZN5clang4ento12AllocaRegion13ProfileRegionERN4llvm16FoldingSetNodeIDEPKNS_4ExprEjPKNS0_9MemRegionE(ptr noundef nonnull align 8 dereferenceable(144) %1, ptr noundef %4, i32 noundef %6, ptr noundef %8)
  ret void
}